; Function Attrs: mustprogress uwtable
define void @_ZN8QuantLib30UnitOfMeasureConversionManager5clearEv(ptr noundef nonnull align 8 dereferenceable(24) %this) local_unnamed_addr #0 align 2 personality ptr @__gxx_personality_v0 {
entry:
  %0 = load ptr, ptr %this, align 8, !tbaa !8
  %cmp.not4.i.i = icmp eq ptr %0, %this
  br i1 %cmp.not4.i.i, label %_ZNSt7__cxx114listIN8QuantLib23UnitOfMeasureConversionESaIS2_EE5clearEv.exit, label %while.body.i.i

while.body.i.i:                                   ; preds = %entry, %_ZNSt16allocator_traitsISaISt10_List_nodeIN8QuantLib23UnitOfMeasureConversionEEEE7destroyIS2_EEvRS4_PT_.exit.i.i
  %__cur.05.i.i = phi ptr [ %1, %_ZNSt16allocator_traitsISaISt10_List_nodeIN8QuantLib23UnitOfMeasureConversionEEEE7destroyIS2_EEvRS4_PT_.exit.i.i ], [ %0, %entry ]
  %1 = load ptr, ptr %__cur.05.i.i, align 8, !tbaa !8
  %pn.i.i.i.i.i.i = getelementptr inbounds nuw i8, ptr %__cur.05.i.i, i64 24
  %2 = load ptr, ptr %pn.i.i.i.i.i.i, align 8, !tbaa !12
  %cmp.not.i.i.i.i.i.i.i = icmp eq ptr %2, null
  br i1 %cmp.not.i.i.i.i.i.i.i, label %_ZNSt16allocator_traitsISaISt10_List_nodeIN8QuantLib23UnitOfMeasureConversionEEEE7destroyIS2_EEvRS4_PT_.exit.i.i, label %if.then.i.i.i.i.i.i.i

if.then.i.i.i.i.i.i.i:                            ; preds = %while.body.i.i
  %use_count_.i.i.i.i.i.i.i.i = getelementptr inbounds nuw i8, ptr %2, i64 8
  %3 = atomicrmw sub ptr %use_count_.i.i.i.i.i.i.i.i, i32 1 acq_rel, align 4
  %cmp.i.i.i.i.i.i.i.i = icmp eq i32 %3, 1
  br i1 %cmp.i.i.i.i.i.i.i.i, label %if.then.i.i.i.i.i.i.i.i, label %_ZNSt16allocator_traitsISaISt10_List_nodeIN8QuantLib23UnitOfMeasureConversionEEEE7destroyIS2_EEvRS4_PT_.exit.i.i

if.then.i.i.i.i.i.i.i.i:                          ; preds = %if.then.i.i.i.i.i.i.i
  %vtable.i.i.i.i.i.i.i.i = load ptr, ptr %2, align 8, !tbaa !14
  %vfn.i.i.i.i.i.i.i.i = getelementptr inbounds i8, ptr %vtable.i.i.i.i.i.i.i.i, i64 16
  %4 = load ptr, ptr %vfn.i.i.i.i.i.i.i.i, align 8
  invoke void %4(ptr noundef nonnull align 8 dereferenceable(16) %2)
          to label %.noexc.i.i.i.i.i.i.i unwind label %terminate.lpad.i.i.i.i.i.i.i

.noexc.i.i.i.i.i.i.i:                             ; preds = %if.then.i.i.i.i.i.i.i.i
  %weak_count_.i.i.i.i.i.i.i.i.i = getelementptr inbounds nuw i8, ptr %2, i64 12
  %5 = atomicrmw sub ptr %weak_count_.i.i.i.i.i.i.i.i.i, i32 1 acq_rel, align 4
  %cmp.i.i.i.i.i.i.i.i.i = icmp eq i32 %5, 1
  br i1 %cmp.i.i.i.i.i.i.i.i.i, label %if.then.i.i.i.i.i.i.i.i.i, label %_ZNSt16allocator_traitsISaISt10_List_nodeIN8QuantLib23UnitOfMeasureConversionEEEE7destroyIS2_EEvRS4_PT_.exit.i.i

if.then.i.i.i.i.i.i.i.i.i:                        ; preds = %.noexc.i.i.i.i.i.i.i
  %vtable.i.i.i.i.i.i.i.i.i = load ptr, ptr %2, align 8, !tbaa !14
  %vfn.i.i.i.i.i.i.i.i.i = getelementptr inbounds i8, ptr %vtable.i.i.i.i.i.i.i.i.i, i64 24
  %6 = load ptr, ptr %vfn.i.i.i.i.i.i.i.i.i, align 8
  invoke void %6(ptr noundef nonnull align 8 dereferenceable(16) %2)
          to label %_ZNSt16allocator_traitsISaISt10_List_nodeIN8QuantLib23UnitOfMeasureConversionEEEE7destroyIS2_EEvRS4_PT_.exit.i.i unwind label %terminate.lpad.i.i.i.i.i.i.i

terminate.lpad.i.i.i.i.i.i.i:                     ; preds = %if.then.i.i.i.i.i.i.i.i.i, %if.then.i.i.i.i.i.i.i.i
  %7 = landingpad { ptr, i32 }
          catch ptr null
  %8 = extractvalue { ptr, i32 } %7, 0
  tail call void @__clang_call_terminate(ptr %8) #21
  unreachable

_ZNSt16allocator_traitsISaISt10_List_nodeIN8QuantLib23UnitOfMeasureConversionEEEE7destroyIS2_EEvRS4_PT_.exit.i.i: ; preds = %if.then.i.i.i.i.i.i.i.i.i, %.noexc.i.i.i.i.i.i.i, %if.then.i.i.i.i.i.i.i, %while.body.i.i
  tail call void @_ZdlPvm(ptr noundef nonnull %__cur.05.i.i, i64 noundef 32) #22
  %cmp.not.i.i = icmp eq ptr %1, %this
  br i1 %cmp.not.i.i, label %_ZNSt7__cxx114listIN8QuantLib23UnitOfMeasureConversionESaIS2_EE5clearEv.exit, label %while.body.i.i, !llvm.loop !16

_ZNSt7__cxx114listIN8QuantLib23UnitOfMeasureConversionESaIS2_EE5clearEv.exit: ; preds = %_ZNSt16allocator_traitsISaISt10_List_nodeIN8QuantLib23UnitOfMeasureConversionEEEE7destroyIS2_EEvRS4_PT_.exit.i.i, %entry
  %_M_prev.i.i.i = getelementptr inbounds nuw i8, ptr %this, i64 8
  store ptr %this, ptr %_M_prev.i.i.i, align 8, !tbaa !3
  store ptr %this, ptr %this, align 8, !tbaa !8
  %_M_size.i.i.i = getelementptr inbounds nuw i8, ptr %this, i64 16
  store i64 0, ptr %_M_size.i.i.i, align 8, !tbaa !9
  tail call void @_ZN8QuantLib30UnitOfMeasureConversionManager25addKnownConversionFactorsEv(ptr noundef nonnull align 8 dereferenceable(24) %this)
  ret void
}